target datalayout = "e-m:e-p270:32:32-p271:32:32-p272:64:64-i64:64-i128:128-f80:128-n8:16:32:64-S128"
target triple = "x86_64-pc-linux-gnu"

%struct.lean_object = type { i32, i32 }
%struct.lean_ctor_object = type { %struct.lean_object, [0 x ptr] }

@l___private_Lean_Elab_SyntheticMVars_0__Lean_Elab_Term_synthesizeSyntheticMVarsStep___lambda__1___closed__11 = internal global ptr null, align 8
@l___private_Lean_Elab_SyntheticMVars_0__Lean_Elab_Term_synthesizeSyntheticMVarsStep___lambda__1___closed__16 = internal global ptr null, align 8
@l___private_Lean_Elab_SyntheticMVars_0__Lean_Elab_Term_synthesizeSyntheticMVarsStep___lambda__1___closed__20 = internal global ptr null, align 8
@l___private_Lean_Elab_SyntheticMVars_0__Lean_Elab_Term_synthesizeSyntheticMVarsStep___lambda__1___closed__22 = internal global ptr null, align 8

; Function Attrs: inlinehint nounwind uwtable
define internal ptr @lean_to_ctor(ptr noundef %0) #0 {
  %2 = alloca ptr, align 8
  store ptr %0, ptr %2, align 8, !tbaa !4
  %3 = load ptr, ptr %2, align 8, !tbaa !4
  ret ptr %3
}

; Function Attrs: inlinehint nounwind uwtable
define internal ptr @lean_ctor_obj_cptr(ptr noundef %0) #0 {
  %2 = alloca ptr, align 8
  store ptr %0, ptr %2, align 8, !tbaa !4
  %3 = load ptr, ptr %2, align 8, !tbaa !4
  %4 = call ptr @lean_to_ctor(ptr noundef %3)
  %5 = getelementptr inbounds nuw %struct.lean_ctor_object, ptr %4, i32 0, i32 1
  %6 = getelementptr inbounds [0 x ptr], ptr %5, i64 0, i64 0
  ret ptr %6
}

; Function Attrs: inlinehint nounwind uwtable
define internal zeroext i8 @lean_ctor_get_uint8(ptr noundef %0, i32 noundef %1) #0 {
  %3 = alloca ptr, align 8
  %4 = alloca i32, align 4
  store ptr %0, ptr %3, align 8, !tbaa !4
  store i32 %1, ptr %4, align 4, !tbaa !13
  %5 = load ptr, ptr %3, align 8, !tbaa !4
  %6 = call ptr @lean_ctor_obj_cptr(ptr noundef %5)
  %7 = load i32, ptr %4, align 4, !tbaa !13
  %8 = zext i32 %7 to i64
  %9 = getelementptr inbounds nuw i8, ptr %6, i64 %8
  %10 = load i8, ptr %9, align 1, !tbaa !12
  ret i8 %10
}

; Function Attrs: nounwind uwtable
define ptr @l___private_Lean_Elab_SyntheticMVars_0__Lean_Elab_Term_synthesizeSyntheticMVarsStep___lambda__1(ptr noundef %0, i8 noundef zeroext %1, ptr noundef %2) #2 {
  %4 = alloca ptr, align 8
  %5 = alloca ptr, align 8
  %6 = alloca i8, align 1
  %7 = alloca ptr, align 8
  %8 = alloca i8, align 1
  %9 = alloca ptr, align 8
  %10 = alloca i32, align 4
  %11 = alloca ptr, align 8
  %12 = alloca ptr, align 8
  %13 = alloca ptr, align 8
  store ptr %0, ptr %5, align 8, !tbaa !4
  store i8 %1, ptr %6, align 1, !tbaa !12
  store ptr %2, ptr %7, align 8, !tbaa !4
  br label %14

14:                                               ; preds = %3
  call void @llvm.lifetime.start.p0(i64 1, ptr %8) #8
  %15 = load ptr, ptr %5, align 8, !tbaa !4
  %16 = call zeroext i8 @lean_ctor_get_uint8(ptr noundef %15, i32 noundef 56)
  store i8 %16, ptr %8, align 1, !tbaa !12
  %17 = load i8, ptr %8, align 1, !tbaa !12
  %18 = zext i8 %17 to i32
  %19 = icmp eq i32 %18, 0
  br i1 %19, label %20, label %30

20:                                               ; preds = %14
  %21 = load i8, ptr %6, align 1, !tbaa !12
  %22 = zext i8 %21 to i32
  %23 = icmp eq i32 %22, 0
  br i1 %23, label %24, label %27

24:                                               ; preds = %20
  call void @llvm.lifetime.start.p0(i64 8, ptr %9) #8
  %25 = load ptr, ptr @l___private_Lean_Elab_SyntheticMVars_0__Lean_Elab_Term_synthesizeSyntheticMVarsStep___lambda__1___closed__11, align 8, !tbaa !4
  store ptr %25, ptr %9, align 8, !tbaa !4
  %26 = load ptr, ptr %9, align 8, !tbaa !4
  store ptr %26, ptr %4, align 8
  store i32 1, ptr %10, align 4
  call void @llvm.lifetime.end.p0(i64 8, ptr %9) #8
  br label %40

27:                                               ; preds = %20
  call void @llvm.lifetime.start.p0(i64 8, ptr %11) #8
  %28 = load ptr, ptr @l___private_Lean_Elab_SyntheticMVars_0__Lean_Elab_Term_synthesizeSyntheticMVarsStep___lambda__1___closed__16, align 8, !tbaa !4
  store ptr %28, ptr %11, align 8, !tbaa !4
  %29 = load ptr, ptr %11, align 8, !tbaa !4
  store ptr %29, ptr %4, align 8
  store i32 1, ptr %10, align 4
  call void @llvm.lifetime.end.p0(i64 8, ptr %11) #8
  br label %40

30:                                               ; preds = %14
  %31 = load i8, ptr %6, align 1, !tbaa !12
  %32 = zext i8 %31 to i32
  %33 = icmp eq i32 %32, 0
  br i1 %33, label %34, label %37

34:                                               ; preds = %30
  call void @llvm.lifetime.start.p0(i64 8, ptr %12) #8
  %35 = load ptr, ptr @l___private_Lean_Elab_SyntheticMVars_0__Lean_Elab_Term_synthesizeSyntheticMVarsStep___lambda__1___closed__20, align 8, !tbaa !4
  store ptr %35, ptr %12, align 8, !tbaa !4
  %36 = load ptr, ptr %12, align 8, !tbaa !4
  store ptr %36, ptr %4, align 8
  store i32 1, ptr %10, align 4
  call void @llvm.lifetime.end.p0(i64 8, ptr %12) #8
  br label %40

37:                                               ; preds = %30
  call void @llvm.lifetime.start.p0(i64 8, ptr %13) #8
  %38 = load ptr, ptr @l___private_Lean_Elab_SyntheticMVars_0__Lean_Elab_Term_synthesizeSyntheticMVarsStep___lambda__1___closed__22, align 8, !tbaa !4
  store ptr %38, ptr %13, align 8, !tbaa !4
  %39 = load ptr, ptr %13, align 8, !tbaa !4
  store ptr %39, ptr %4, align 8
  store i32 1, ptr %10, align 4
  call void @llvm.lifetime.end.p0(i64 8, ptr %13) #8
  br label %40

40:                                               ; preds = %37, %34, %27, %24
  call void @llvm.lifetime.end.p0(i64 1, ptr %8) #8
  %41 = load ptr, ptr %4, align 8
  ret ptr %41
}